; Function Attrs: mustprogress nofree nounwind willreturn uwtable
define noalias noundef ptr @av_strdup(ptr noundef readonly captures(address_is_null) %0) local_unnamed_addr #10 {
  %.not = icmp eq ptr %0, null
  br i1 %.not, label %av_realloc.exit.thread, label %2

2:                                                ; preds = %1
  %3 = tail call i64 @strlen(ptr noundef nonnull dereferenceable(1) %0) #23
  %4 = add i64 %3, 1
  %5 = load atomic i64, ptr @max_alloc_size monotonic, align 8
  %6 = icmp ugt i64 %4, %5
  br i1 %6, label %av_realloc.exit.thread, label %av_realloc.exit

av_realloc.exit:                                  ; preds = %2
  %7 = tail call i64 @llvm.umax.i64(i64 %4, i64 1)
  %malloc = tail call ptr @malloc(i64 %7)
  %.not9 = icmp eq ptr %malloc, null
  br i1 %.not9, label %av_realloc.exit.thread, label %8

8:                                                ; preds = %av_realloc.exit
  tail call void @llvm.memcpy.p0.p0.i64(ptr nonnull align 1 %malloc, ptr nonnull align 1 %0, i64 %4, i1 false)
  br label %av_realloc.exit.thread

av_realloc.exit.thread:                           ; preds = %2, %av_realloc.exit, %8, %1
  %.0 = phi ptr [ null, %1 ], [ %malloc, %8 ], [ null, %av_realloc.exit ], [ null, %2 ]
  ret ptr %.0
}